target datalayout = "e-m:e-p270:32:32-p271:32:32-p272:64:64-i64:64-i128:128-f80:128-n8:16:32:64-S128"
target triple = "x86_64-pc-linux-gnu"

%struct._object = type { %union.anon, ptr }
%union.anon = type { i64 }
%struct.Py_buffer = type { ptr, ptr, i64, i64, i32, i32, ptr, ptr, ptr, ptr, ptr }
%struct.PySocketSockObject = type { %struct._object, i32, i32, i32, i32, ptr, i64, ptr }

@_Py_NoneStruct = external global %struct._object, align 8
@.str.624 = private unnamed_addr constant [15 x i8] c"iiK:setsockopt\00", align 1
@.str.625 = private unnamed_addr constant [15 x i8] c"iii:setsockopt\00", align 1
@.str.626 = private unnamed_addr constant [17 x i8] c"iiO!I:setsockopt\00", align 1
@.str.627 = private unnamed_addr constant [16 x i8] c"iiy*:setsockopt\00", align 1

; Function Attrs: inlinehint nounwind uwtable
define internal ptr @_Py_TYPE(ptr noundef %0) #3 {
  %2 = alloca ptr, align 8
  store ptr %0, ptr %2, align 8, !tbaa !3
  %3 = load ptr, ptr %2, align 8, !tbaa !3
  %4 = getelementptr inbounds nuw %struct._object, ptr %3, i32 0, i32 1
  %5 = load ptr, ptr %4, align 8, !tbaa !116
  ret ptr %5
}

; Function Attrs: inlinehint nounwind uwtable
define internal i32 @get_sock_fd(ptr noundef %0) #3 {
  %2 = alloca ptr, align 8
  store ptr %0, ptr %2, align 8, !tbaa !8
  %3 = load ptr, ptr %2, align 8, !tbaa !8
  %4 = getelementptr inbounds nuw %struct.PySocketSockObject, ptr %3, i32 0, i32 1
  %5 = load i32, ptr %4, align 8, !tbaa !113
  ret i32 %5
}

; Function Attrs: nounwind uwtable
define internal ptr @sock_setsockopt(ptr noundef %0, ptr noundef %1) #0 {
  %3 = alloca ptr, align 8
  %4 = alloca ptr, align 8
  %5 = alloca ptr, align 8
  %6 = alloca ptr, align 8
  %7 = alloca i32, align 4
  %8 = alloca i32, align 4
  %9 = alloca i32, align 4
  %10 = alloca %struct.Py_buffer, align 8
  %11 = alloca i32, align 4
  %12 = alloca i32, align 4
  %13 = alloca ptr, align 8
  %14 = alloca i64, align 8
  %15 = alloca i32, align 4
  store ptr %0, ptr %4, align 8, !tbaa !3
  store ptr %1, ptr %5, align 8, !tbaa !3
  call void @llvm.lifetime.start.p0(i64 8, ptr %6) #10
  %16 = load ptr, ptr %4, align 8, !tbaa !3
  store ptr %16, ptr %6, align 8, !tbaa !8
  call void @llvm.lifetime.start.p0(i64 4, ptr %7) #10
  call void @llvm.lifetime.start.p0(i64 4, ptr %8) #10
  call void @llvm.lifetime.start.p0(i64 4, ptr %9) #10
  call void @llvm.lifetime.start.p0(i64 80, ptr %10) #10
  call void @llvm.lifetime.start.p0(i64 4, ptr %11) #10
  call void @llvm.lifetime.start.p0(i64 4, ptr %12) #10
  call void @llvm.lifetime.start.p0(i64 8, ptr %13) #10
  %17 = load ptr, ptr %6, align 8, !tbaa !8
  %18 = getelementptr inbounds nuw %struct.PySocketSockObject, ptr %17, i32 0, i32 2
  %19 = load i32, ptr %18, align 4, !tbaa !106
  %20 = icmp eq i32 %19, 40
  br i1 %20, label %21, label %34

21:                                               ; preds = %2
  call void @llvm.lifetime.start.p0(i64 8, ptr %14) #10
  %22 = load ptr, ptr %5, align 8, !tbaa !3
  %23 = call i32 (ptr, ptr, ...) @PyArg_ParseTuple(ptr noundef %22, ptr noundef @.str.624, ptr noundef %7, ptr noundef %8, ptr noundef %14)
  %24 = icmp ne i32 %23, 0
  br i1 %24, label %25, label %31

25:                                               ; preds = %21
  %26 = load ptr, ptr %6, align 8, !tbaa !8
  %27 = call i32 @get_sock_fd(ptr noundef %26)
  %28 = load i32, ptr %7, align 4, !tbaa !15
  %29 = load i32, ptr %8, align 4, !tbaa !15
  %30 = call i32 @setsockopt(i32 noundef %27, i32 noundef %28, i32 noundef %29, ptr noundef %14, i32 noundef 8) #10
  store i32 %30, ptr %9, align 4, !tbaa !15
  store i32 2, ptr %15, align 4
  br label %32

31:                                               ; preds = %21
  store ptr null, ptr %3, align 8
  store i32 1, ptr %15, align 4
  br label %32

32:                                               ; preds = %25, %31
  call void @llvm.lifetime.end.p0(i64 8, ptr %14) #10
  %33 = load i32, ptr %15, align 4
  switch i32 %33, label %81 [
    i32 2, label %72
  ]

34:                                               ; preds = %2
  %35 = load ptr, ptr %5, align 8, !tbaa !3
  %36 = call i32 (ptr, ptr, ...) @PyArg_ParseTuple(ptr noundef %35, ptr noundef @.str.625, ptr noundef %7, ptr noundef %8, ptr noundef %11)
  %37 = icmp ne i32 %36, 0
  br i1 %37, label %38, label %44

38:                                               ; preds = %34
  %39 = load ptr, ptr %6, align 8, !tbaa !8
  %40 = call i32 @get_sock_fd(ptr noundef %39)
  %41 = load i32, ptr %7, align 4, !tbaa !15
  %42 = load i32, ptr %8, align 4, !tbaa !15
  %43 = call i32 @setsockopt(i32 noundef %40, i32 noundef %41, i32 noundef %42, ptr noundef %11, i32 noundef 4) #10
  store i32 %43, ptr %9, align 4, !tbaa !15
  br label %72

44:                                               ; preds = %34
  call void @PyErr_Clear()
  %45 = load ptr, ptr %5, align 8, !tbaa !3
  %46 = call ptr @_Py_TYPE(ptr noundef @_Py_NoneStruct)
  %47 = call i32 (ptr, ptr, ...) @PyArg_ParseTuple(ptr noundef %45, ptr noundef @.str.626, ptr noundef %7, ptr noundef %8, ptr noundef %46, ptr noundef %13, ptr noundef %12)
  %48 = icmp ne i32 %47, 0
  br i1 %48, label %49, label %56

49:                                               ; preds = %44
  %50 = load ptr, ptr %6, align 8, !tbaa !8
  %51 = call i32 @get_sock_fd(ptr noundef %50)
  %52 = load i32, ptr %7, align 4, !tbaa !15
  %53 = load i32, ptr %8, align 4, !tbaa !15
  %54 = load i32, ptr %12, align 4, !tbaa !15
  %55 = call i32 @setsockopt(i32 noundef %51, i32 noundef %52, i32 noundef %53, ptr noundef null, i32 noundef %54) #10
  store i32 %55, ptr %9, align 4, !tbaa !15
  br label %72

56:                                               ; preds = %44
  call void @PyErr_Clear()
  %57 = load ptr, ptr %5, align 8, !tbaa !3
  %58 = call i32 (ptr, ptr, ...) @PyArg_ParseTuple(ptr noundef %57, ptr noundef @.str.627, ptr noundef %7, ptr noundef %8, ptr noundef %10)
  %59 = icmp ne i32 %58, 0
  br i1 %59, label %61, label %60

60:                                               ; preds = %56
  store ptr null, ptr %3, align 8
  store i32 1, ptr %15, align 4
  br label %81

61:                                               ; preds = %56
  %62 = load ptr, ptr %6, align 8, !tbaa !8
  %63 = call i32 @get_sock_fd(ptr noundef %62)
  %64 = load i32, ptr %7, align 4, !tbaa !15
  %65 = load i32, ptr %8, align 4, !tbaa !15
  %66 = getelementptr inbounds nuw %struct.Py_buffer, ptr %10, i32 0, i32 0
  %67 = load ptr, ptr %66, align 8, !tbaa !36
  %68 = getelementptr inbounds nuw %struct.Py_buffer, ptr %10, i32 0, i32 2
  %69 = load i64, ptr %68, align 8, !tbaa !39
  %70 = trunc i64 %69 to i32
  %71 = call i32 @setsockopt(i32 noundef %63, i32 noundef %64, i32 noundef %65, ptr noundef %67, i32 noundef %70) #10
  store i32 %71, ptr %9, align 4, !tbaa !15
  call void @PyBuffer_Release(ptr noundef %10)
  br label %72

72:                                               ; preds = %61, %32, %49, %38
  %73 = load i32, ptr %9, align 4, !tbaa !15
  %74 = icmp slt i32 %73, 0
  br i1 %74, label %75, label %80

75:                                               ; preds = %72
  %76 = load ptr, ptr %6, align 8, !tbaa !8
  %77 = getelementptr inbounds nuw %struct.PySocketSockObject, ptr %76, i32 0, i32 5
  %78 = load ptr, ptr %77, align 8, !tbaa !110
  %79 = call ptr %78()
  store ptr %79, ptr %3, align 8
  store i32 1, ptr %15, align 4
  br label %81

80:                                               ; preds = %72
  store ptr @_Py_NoneStruct, ptr %3, align 8
  store i32 1, ptr %15, align 4
  br label %81

81:                                               ; preds = %80, %75, %32, %60
  call void @llvm.lifetime.end.p0(i64 8, ptr %13) #10
  call void @llvm.lifetime.end.p0(i64 4, ptr %12) #10
  call void @llvm.lifetime.end.p0(i64 4, ptr %11) #10
  call void @llvm.lifetime.end.p0(i64 80, ptr %10) #10
  call void @llvm.lifetime.end.p0(i64 4, ptr %9) #10
  call void @llvm.lifetime.end.p0(i64 4, ptr %8) #10
  call void @llvm.lifetime.end.p0(i64 4, ptr %7) #10
  call void @llvm.lifetime.end.p0(i64 8, ptr %6) #10
  %82 = load ptr, ptr %3, align 8
  ret ptr %82
}