; Function Attrs: nounwind uwtable
define internal ptr @sock_setsockopt(ptr noundef readonly captures(none) %0, ptr noundef %1) #0 {
  %3 = alloca i32, align 4
  %4 = alloca i32, align 4
  %5 = alloca %struct.Py_buffer, align 8
  %6 = alloca i32, align 4
  %7 = alloca i32, align 4
  %8 = alloca ptr, align 8
  %9 = alloca i64, align 8
  call void @llvm.lifetime.start.p0(i64 4, ptr nonnull %3) #13
  call void @llvm.lifetime.start.p0(i64 4, ptr nonnull %4) #13
  call void @llvm.lifetime.start.p0(i64 80, ptr nonnull %5) #13
  call void @llvm.lifetime.start.p0(i64 4, ptr nonnull %6) #13
  call void @llvm.lifetime.start.p0(i64 4, ptr nonnull %7) #13
  call void @llvm.lifetime.start.p0(i64 8, ptr nonnull %8) #13
  %10 = getelementptr inbounds nuw i8, ptr %0, i64 20
  %11 = load i32, ptr %10, align 4, !tbaa !86
  %12 = icmp eq i32 %11, 40
  br i1 %12, label %13, label %20

13:                                               ; preds = %2
  call void @llvm.lifetime.start.p0(i64 8, ptr nonnull %9) #13
  %14 = call i32 (ptr, ptr, ...) @PyArg_ParseTuple(ptr noundef %1, ptr noundef nonnull @.str.624, ptr noundef nonnull %3, ptr noundef nonnull %4, ptr noundef nonnull %9) #13
  %.not18.not = icmp eq i32 %14, 0
  br i1 %.not18.not, label %.thread, label %15

.thread:                                          ; preds = %13
  call void @llvm.lifetime.end.p0(i64 8, ptr nonnull %9) #13
  br label %52

15:                                               ; preds = %13
  %16 = getelementptr i8, ptr %0, i64 16
  %.val21 = load i32, ptr %16, align 8, !tbaa !83
  %17 = load i32, ptr %3, align 4, !tbaa !35
  %18 = load i32, ptr %4, align 4, !tbaa !35
  %19 = call i32 @setsockopt(i32 noundef %.val21, i32 noundef %17, i32 noundef %18, ptr noundef nonnull %9, i32 noundef 8) #13
  call void @llvm.lifetime.end.p0(i64 8, ptr nonnull %9) #13
  br label %46

20:                                               ; preds = %2
  %21 = call i32 (ptr, ptr, ...) @PyArg_ParseTuple(ptr noundef %1, ptr noundef nonnull @.str.625, ptr noundef nonnull %3, ptr noundef nonnull %4, ptr noundef nonnull %6) #13
  %.not = icmp eq i32 %21, 0
  br i1 %.not, label %27, label %22

22:                                               ; preds = %20
  %23 = getelementptr i8, ptr %0, i64 16
  %.val20 = load i32, ptr %23, align 8, !tbaa !83
  %24 = load i32, ptr %3, align 4, !tbaa !35
  %25 = load i32, ptr %4, align 4, !tbaa !35
  %26 = call i32 @setsockopt(i32 noundef %.val20, i32 noundef %24, i32 noundef %25, ptr noundef nonnull %6, i32 noundef 4) #13
  br label %46

27:                                               ; preds = %20
  call void @PyErr_Clear() #13
  %_Py_NoneStruct.val = load ptr, ptr getelementptr inbounds nuw (i8, ptr @_Py_NoneStruct, i64 8), align 8, !tbaa !39
  %28 = call i32 (ptr, ptr, ...) @PyArg_ParseTuple(ptr noundef %1, ptr noundef nonnull @.str.626, ptr noundef nonnull %3, ptr noundef nonnull %4, ptr noundef %_Py_NoneStruct.val, ptr noundef nonnull %8, ptr noundef nonnull %7) #13
  %.not16 = icmp eq i32 %28, 0
  br i1 %.not16, label %35, label %29

29:                                               ; preds = %27
  %30 = getelementptr i8, ptr %0, i64 16
  %.val19 = load i32, ptr %30, align 8, !tbaa !83
  %31 = load i32, ptr %3, align 4, !tbaa !35
  %32 = load i32, ptr %4, align 4, !tbaa !35
  %33 = load i32, ptr %7, align 4, !tbaa !35
  %34 = call i32 @setsockopt(i32 noundef %.val19, i32 noundef %31, i32 noundef %32, ptr noundef null, i32 noundef %33) #13
  br label %46

35:                                               ; preds = %27
  call void @PyErr_Clear() #13
  %36 = call i32 (ptr, ptr, ...) @PyArg_ParseTuple(ptr noundef %1, ptr noundef nonnull @.str.627, ptr noundef nonnull %3, ptr noundef nonnull %4, ptr noundef nonnull %5) #13
  %.not17 = icmp eq i32 %36, 0
  br i1 %.not17, label %52, label %37

37:                                               ; preds = %35
  %38 = getelementptr i8, ptr %0, i64 16
  %.val = load i32, ptr %38, align 8, !tbaa !83
  %39 = load i32, ptr %3, align 4, !tbaa !35
  %40 = load i32, ptr %4, align 4, !tbaa !35
  %41 = load ptr, ptr %5, align 8, !tbaa !27
  %42 = getelementptr inbounds nuw i8, ptr %5, i64 16
  %43 = load i64, ptr %42, align 8, !tbaa !31
  %44 = trunc i64 %43 to i32
  %45 = call i32 @setsockopt(i32 noundef %.val, i32 noundef %39, i32 noundef %40, ptr noundef %41, i32 noundef %44) #13
  call void @PyBuffer_Release(ptr noundef nonnull %5) #13
  br label %46

46:                                               ; preds = %15, %37, %29, %22
  %.1 = phi i32 [ %19, %15 ], [ %26, %22 ], [ %34, %29 ], [ %45, %37 ]
  %47 = icmp slt i32 %.1, 0
  br i1 %47, label %48, label %52

48:                                               ; preds = %46
  %49 = getelementptr inbounds nuw i8, ptr %0, i64 32
  %50 = load ptr, ptr %49, align 8, !tbaa !89
  %51 = call ptr %50() #13
  br label %52

52:                                               ; preds = %.thread, %46, %35, %48
  %.115 = phi ptr [ %51, %48 ], [ null, %35 ], [ @_Py_NoneStruct, %46 ], [ null, %.thread ]
  call void @llvm.lifetime.end.p0(i64 8, ptr nonnull %8) #13
  call void @llvm.lifetime.end.p0(i64 4, ptr nonnull %7) #13
  call void @llvm.lifetime.end.p0(i64 4, ptr nonnull %6) #13
  call void @llvm.lifetime.end.p0(i64 80, ptr nonnull %5) #13
  call void @llvm.lifetime.end.p0(i64 4, ptr nonnull %4) #13
  call void @llvm.lifetime.end.p0(i64 4, ptr nonnull %3) #13
  ret ptr %.115
}